target datalayout = "e-m:e-p270:32:32-p271:32:32-p272:64:64-i64:64-i128:128-f80:128-n8:16:32:64-S128"
target triple = "x86_64-pc-linux-gnu"

%struct.DWTContext = type { ptr, ptr, i32, i32, i32, i32, i32, ptr, %union.anon, %union.anon, ptr, ptr, ptr, ptr, [8 x %struct.DWTCompose] }
%union.anon = type { ptr }
%struct.DWTCompose = type { [8 x ptr], i32 }

; Function Attrs: alwaysinline nounwind willreturn memory(none) uwtable
define internal i32 @av_clip_c(i32 noundef %0, i32 noundef %1, i32 noundef %2) #3 {
  %4 = alloca i32, align 4
  %5 = alloca i32, align 4
  %6 = alloca i32, align 4
  %7 = alloca i32, align 4
  store i32 %0, ptr %5, align 4, !tbaa !11
  store i32 %1, ptr %6, align 4, !tbaa !11
  store i32 %2, ptr %7, align 4, !tbaa !11
  %8 = load i32, ptr %5, align 4, !tbaa !11
  %9 = load i32, ptr %6, align 4, !tbaa !11
  %10 = icmp slt i32 %8, %9
  br i1 %10, label %11, label %13

11:                                               ; preds = %3
  %12 = load i32, ptr %6, align 4, !tbaa !11
  store i32 %12, ptr %4, align 4
  br label %21

13:                                               ; preds = %3
  %14 = load i32, ptr %5, align 4, !tbaa !11
  %15 = load i32, ptr %7, align 4, !tbaa !11
  %16 = icmp sgt i32 %14, %15
  br i1 %16, label %17, label %19

17:                                               ; preds = %13
  %18 = load i32, ptr %7, align 4, !tbaa !11
  store i32 %18, ptr %4, align 4
  br label %21

19:                                               ; preds = %13
  %20 = load i32, ptr %5, align 4, !tbaa !11
  store i32 %20, ptr %4, align 4
  br label %21

21:                                               ; preds = %19, %17, %11
  %22 = load i32, ptr %4, align 4
  ret i32 %22
}

; Function Attrs: nounwind uwtable
define internal void @spatial_compose_dd97i_dy_8bit(ptr noundef %0, i32 noundef %1, i32 noundef %2, i32 noundef %3, i32 noundef %4) #0 {
  %6 = alloca ptr, align 8
  %7 = alloca i32, align 4
  %8 = alloca i32, align 4
  %9 = alloca i32, align 4
  %10 = alloca i32, align 4
  %11 = alloca ptr, align 8
  %12 = alloca ptr, align 8
  %13 = alloca ptr, align 8
  %14 = alloca i32, align 4
  %15 = alloca i32, align 4
  %16 = alloca [8 x ptr], align 16
  store ptr %0, ptr %6, align 8, !tbaa !4
  store i32 %1, ptr %7, align 4, !tbaa !11
  store i32 %2, ptr %8, align 4, !tbaa !11
  store i32 %3, ptr %9, align 4, !tbaa !11
  store i32 %4, ptr %10, align 4, !tbaa !11
  call void @llvm.lifetime.start.p0(i64 8, ptr %11) #5
  %17 = load ptr, ptr %6, align 8, !tbaa !4
  %18 = getelementptr inbounds nuw %struct.DWTContext, ptr %17, i32 0, i32 8
  %19 = load ptr, ptr %18, align 8, !tbaa !32
  store ptr %19, ptr %11, align 8, !tbaa !45
  call void @llvm.lifetime.start.p0(i64 8, ptr %12) #5
  %20 = load ptr, ptr %6, align 8, !tbaa !4
  %21 = getelementptr inbounds nuw %struct.DWTContext, ptr %20, i32 0, i32 9
  %22 = load ptr, ptr %21, align 8, !tbaa !32
  store ptr %22, ptr %12, align 8, !tbaa !45
  call void @llvm.lifetime.start.p0(i64 8, ptr %13) #5
  %23 = load ptr, ptr %6, align 8, !tbaa !4
  %24 = getelementptr inbounds nuw %struct.DWTContext, ptr %23, i32 0, i32 14
  %25 = getelementptr inbounds [8 x %struct.DWTCompose], ptr %24, i64 0, i64 0
  %26 = load i32, ptr %7, align 4, !tbaa !11
  %27 = sext i32 %26 to i64
  %28 = getelementptr inbounds %struct.DWTCompose, ptr %25, i64 %27
  store ptr %28, ptr %13, align 8, !tbaa !42
  call void @llvm.lifetime.start.p0(i64 4, ptr %14) #5
  call void @llvm.lifetime.start.p0(i64 4, ptr %15) #5
  %29 = load ptr, ptr %13, align 8, !tbaa !42
  %30 = getelementptr inbounds nuw %struct.DWTCompose, ptr %29, i32 0, i32 1
  %31 = load i32, ptr %30, align 8, !tbaa !27
  store i32 %31, ptr %15, align 4, !tbaa !11
  call void @llvm.lifetime.start.p0(i64 64, ptr %16) #5
  store i32 0, ptr %14, align 4, !tbaa !11
  br label %32

32:                                               ; preds = %45, %5
  %33 = load i32, ptr %14, align 4, !tbaa !11
  %34 = icmp slt i32 %33, 6
  br i1 %34, label %35, label %48

35:                                               ; preds = %32
  %36 = load ptr, ptr %13, align 8, !tbaa !42
  %37 = getelementptr inbounds nuw %struct.DWTCompose, ptr %36, i32 0, i32 0
  %38 = load i32, ptr %14, align 4, !tbaa !11
  %39 = sext i32 %38 to i64
  %40 = getelementptr inbounds [8 x ptr], ptr %37, i64 0, i64 %39
  %41 = load ptr, ptr %40, align 8, !tbaa !44
  %42 = load i32, ptr %14, align 4, !tbaa !11
  %43 = sext i32 %42 to i64
  %44 = getelementptr inbounds [8 x ptr], ptr %16, i64 0, i64 %43
  store ptr %41, ptr %44, align 8, !tbaa !44
  br label %45

45:                                               ; preds = %35
  %46 = load i32, ptr %14, align 4, !tbaa !11
  %47 = add nsw i32 %46, 1
  store i32 %47, ptr %14, align 4, !tbaa !11
  br label %32, !llvm.loop !46

48:                                               ; preds = %32
  %49 = load ptr, ptr %6, align 8, !tbaa !4
  %50 = getelementptr inbounds nuw %struct.DWTContext, ptr %49, i32 0, i32 0
  %51 = load ptr, ptr %50, align 8, !tbaa !16
  %52 = load i32, ptr %15, align 4, !tbaa !11
  %53 = add nsw i32 %52, 5
  %54 = load i32, ptr %9, align 4, !tbaa !11
  %55 = sub nsw i32 %54, 2
  %56 = call i32 @av_clip_c(i32 noundef %53, i32 noundef 0, i32 noundef %55) #6
  %57 = load i32, ptr %10, align 4, !tbaa !11
  %58 = mul nsw i32 %56, %57
  %59 = sext i32 %58 to i64
  %60 = getelementptr inbounds i8, ptr %51, i64 %59
  %61 = getelementptr inbounds [8 x ptr], ptr %16, i64 0, i64 6
  store ptr %60, ptr %61, align 16, !tbaa !44
  %62 = load ptr, ptr %6, align 8, !tbaa !4
  %63 = getelementptr inbounds nuw %struct.DWTContext, ptr %62, i32 0, i32 0
  %64 = load ptr, ptr %63, align 8, !tbaa !16
  %65 = load i32, ptr %15, align 4, !tbaa !11
  %66 = add nsw i32 %65, 6
  %67 = load i32, ptr %9, align 4, !tbaa !11
  %68 = sub nsw i32 %67, 1
  %69 = call i32 @av_clip_c(i32 noundef %66, i32 noundef 1, i32 noundef %68) #6
  %70 = load i32, ptr %10, align 4, !tbaa !11
  %71 = mul nsw i32 %69, %70
  %72 = sext i32 %71 to i64
  %73 = getelementptr inbounds i8, ptr %64, i64 %72
  %74 = getelementptr inbounds [8 x ptr], ptr %16, i64 0, i64 7
  store ptr %73, ptr %74, align 8, !tbaa !44
  %75 = load i32, ptr %15, align 4, !tbaa !11
  %76 = add nsw i32 %75, 5
  %77 = load i32, ptr %9, align 4, !tbaa !11
  %78 = icmp ult i32 %76, %77
  br i1 %78, label %79, label %88

79:                                               ; preds = %48
  %80 = load ptr, ptr %11, align 8, !tbaa !45
  %81 = getelementptr inbounds [8 x ptr], ptr %16, i64 0, i64 5
  %82 = load ptr, ptr %81, align 8, !tbaa !44
  %83 = getelementptr inbounds [8 x ptr], ptr %16, i64 0, i64 6
  %84 = load ptr, ptr %83, align 16, !tbaa !44
  %85 = getelementptr inbounds [8 x ptr], ptr %16, i64 0, i64 7
  %86 = load ptr, ptr %85, align 8, !tbaa !44
  %87 = load i32, ptr %8, align 4, !tbaa !11
  call void %80(ptr noundef %82, ptr noundef %84, ptr noundef %86, i32 noundef %87)
  br label %88

88:                                               ; preds = %79, %48
  %89 = load i32, ptr %15, align 4, !tbaa !11
  %90 = add nsw i32 %89, 1
  %91 = load i32, ptr %9, align 4, !tbaa !11
  %92 = icmp ult i32 %90, %91
  br i1 %92, label %93, label %106

93:                                               ; preds = %88
  %94 = load ptr, ptr %12, align 8, !tbaa !45
  %95 = getelementptr inbounds [8 x ptr], ptr %16, i64 0, i64 0
  %96 = load ptr, ptr %95, align 16, !tbaa !44
  %97 = getelementptr inbounds [8 x ptr], ptr %16, i64 0, i64 2
  %98 = load ptr, ptr %97, align 16, !tbaa !44
  %99 = getelementptr inbounds [8 x ptr], ptr %16, i64 0, i64 3
  %100 = load ptr, ptr %99, align 8, !tbaa !44
  %101 = getelementptr inbounds [8 x ptr], ptr %16, i64 0, i64 4
  %102 = load ptr, ptr %101, align 16, !tbaa !44
  %103 = getelementptr inbounds [8 x ptr], ptr %16, i64 0, i64 6
  %104 = load ptr, ptr %103, align 16, !tbaa !44
  %105 = load i32, ptr %8, align 4, !tbaa !11
  call void %94(ptr noundef %96, ptr noundef %98, ptr noundef %100, ptr noundef %102, ptr noundef %104, i32 noundef %105)
  br label %106

106:                                              ; preds = %93, %88
  %107 = load i32, ptr %15, align 4, !tbaa !11
  %108 = sub nsw i32 %107, 1
  %109 = load i32, ptr %9, align 4, !tbaa !11
  %110 = icmp ult i32 %108, %109
  br i1 %110, label %111, label %121

111:                                              ; preds = %106
  %112 = load ptr, ptr %6, align 8, !tbaa !4
  %113 = getelementptr inbounds nuw %struct.DWTContext, ptr %112, i32 0, i32 13
  %114 = load ptr, ptr %113, align 8, !tbaa !33
  %115 = getelementptr inbounds [8 x ptr], ptr %16, i64 0, i64 0
  %116 = load ptr, ptr %115, align 16, !tbaa !44
  %117 = load ptr, ptr %6, align 8, !tbaa !4
  %118 = getelementptr inbounds nuw %struct.DWTContext, ptr %117, i32 0, i32 1
  %119 = load ptr, ptr %118, align 8, !tbaa !25
  %120 = load i32, ptr %8, align 4, !tbaa !11
  call void %114(ptr noundef %116, ptr noundef %119, i32 noundef %120)
  br label %121

121:                                              ; preds = %111, %106
  %122 = load i32, ptr %15, align 4, !tbaa !11
  %123 = add nsw i32 %122, 0
  %124 = load i32, ptr %9, align 4, !tbaa !11
  %125 = icmp ult i32 %123, %124
  br i1 %125, label %126, label %136

126:                                              ; preds = %121
  %127 = load ptr, ptr %6, align 8, !tbaa !4
  %128 = getelementptr inbounds nuw %struct.DWTContext, ptr %127, i32 0, i32 13
  %129 = load ptr, ptr %128, align 8, !tbaa !33
  %130 = getelementptr inbounds [8 x ptr], ptr %16, i64 0, i64 1
  %131 = load ptr, ptr %130, align 8, !tbaa !44
  %132 = load ptr, ptr %6, align 8, !tbaa !4
  %133 = getelementptr inbounds nuw %struct.DWTContext, ptr %132, i32 0, i32 1
  %134 = load ptr, ptr %133, align 8, !tbaa !25
  %135 = load i32, ptr %8, align 4, !tbaa !11
  call void %129(ptr noundef %131, ptr noundef %134, i32 noundef %135)
  br label %136

136:                                              ; preds = %126, %121
  store i32 0, ptr %14, align 4, !tbaa !11
  br label %137

137:                                              ; preds = %151, %136
  %138 = load i32, ptr %14, align 4, !tbaa !11
  %139 = icmp slt i32 %138, 6
  br i1 %139, label %140, label %154

140:                                              ; preds = %137
  %141 = load i32, ptr %14, align 4, !tbaa !11
  %142 = add nsw i32 %141, 2
  %143 = sext i32 %142 to i64
  %144 = getelementptr inbounds [8 x ptr], ptr %16, i64 0, i64 %143
  %145 = load ptr, ptr %144, align 8, !tbaa !44
  %146 = load ptr, ptr %13, align 8, !tbaa !42
  %147 = getelementptr inbounds nuw %struct.DWTCompose, ptr %146, i32 0, i32 0
  %148 = load i32, ptr %14, align 4, !tbaa !11
  %149 = sext i32 %148 to i64
  %150 = getelementptr inbounds [8 x ptr], ptr %147, i64 0, i64 %149
  store ptr %145, ptr %150, align 8, !tbaa !44
  br label %151

151:                                              ; preds = %140
  %152 = load i32, ptr %14, align 4, !tbaa !11
  %153 = add nsw i32 %152, 1
  store i32 %153, ptr %14, align 4, !tbaa !11
  br label %137, !llvm.loop !47

154:                                              ; preds = %137
  %155 = load ptr, ptr %13, align 8, !tbaa !42
  %156 = getelementptr inbounds nuw %struct.DWTCompose, ptr %155, i32 0, i32 1
  %157 = load i32, ptr %156, align 8, !tbaa !27
  %158 = add nsw i32 %157, 2
  store i32 %158, ptr %156, align 8, !tbaa !27
  call void @llvm.lifetime.end.p0(i64 64, ptr %16) #5
  call void @llvm.lifetime.end.p0(i64 4, ptr %15) #5
  call void @llvm.lifetime.end.p0(i64 4, ptr %14) #5
  call void @llvm.lifetime.end.p0(i64 8, ptr %13) #5
  call void @llvm.lifetime.end.p0(i64 8, ptr %12) #5
  call void @llvm.lifetime.end.p0(i64 8, ptr %11) #5
  ret void
}